target datalayout = "e-m:e-p270:32:32-p271:32:32-p272:64:64-i64:64-i128:128-f80:128-n8:16:32:64-S128"
target triple = "x86_64-pc-linux-gnu"

@.str.1 = private unnamed_addr constant [37 x i8] c"../openssl/test/helpers/ssltestlib.c\00", align 1
@meth_always_retry = internal global ptr null, align 8
@.str.14 = private unnamed_addr constant [72 x i8] c"meth_always_retry = BIO_meth_new(BIO_TYPE_ALWAYS_RETRY, \22Always Retry\22)\00", align 1
@.str.15 = private unnamed_addr constant [13 x i8] c"Always Retry\00", align 1
@.str.16 = private unnamed_addr constant [58 x i8] c"BIO_meth_set_write(meth_always_retry, always_retry_write)\00", align 1
@.str.17 = private unnamed_addr constant [56 x i8] c"BIO_meth_set_read(meth_always_retry, always_retry_read)\00", align 1
@.str.18 = private unnamed_addr constant [56 x i8] c"BIO_meth_set_puts(meth_always_retry, always_retry_puts)\00", align 1
@.str.19 = private unnamed_addr constant [56 x i8] c"BIO_meth_set_gets(meth_always_retry, always_retry_gets)\00", align 1
@.str.20 = private unnamed_addr constant [56 x i8] c"BIO_meth_set_ctrl(meth_always_retry, always_retry_ctrl)\00", align 1
@.str.21 = private unnamed_addr constant [57 x i8] c"BIO_meth_set_create(meth_always_retry, always_retry_new)\00", align 1
@.str.22 = private unnamed_addr constant [59 x i8] c"BIO_meth_set_destroy(meth_always_retry, always_retry_free)\00", align 1

; Function Attrs: nounwind uwtable
define dso_local ptr @bio_s_always_retry() #0 {
  %1 = alloca ptr, align 8
  %2 = load ptr, ptr @meth_always_retry, align 8, !tbaa !4
  %3 = icmp eq ptr %2, null
  br i1 %3, label %4, label %59

4:                                                ; preds = %0
  %5 = call ptr @BIO_meth_new(i32 noundef 130, ptr noundef @.str.15)
  store ptr %5, ptr @meth_always_retry, align 8, !tbaa !4
  %6 = call i32 @test_ptr(ptr noundef @.str.1, i32 noundef 732, ptr noundef @.str.14, ptr noundef %5)
  %7 = icmp ne i32 %6, 0
  br i1 %7, label %8, label %57

8:                                                ; preds = %4
  %9 = load ptr, ptr @meth_always_retry, align 8, !tbaa !4
  %10 = call i32 @BIO_meth_set_write(ptr noundef %9, ptr noundef @always_retry_write)
  %11 = icmp ne i32 %10, 0
  %12 = zext i1 %11 to i32
  %13 = call i32 @test_true(ptr noundef @.str.1, i32 noundef 734, ptr noundef @.str.16, i32 noundef %12)
  %14 = icmp ne i32 %13, 0
  br i1 %14, label %15, label %57

15:                                               ; preds = %8
  %16 = load ptr, ptr @meth_always_retry, align 8, !tbaa !4
  %17 = call i32 @BIO_meth_set_read(ptr noundef %16, ptr noundef @always_retry_read)
  %18 = icmp ne i32 %17, 0
  %19 = zext i1 %18 to i32
  %20 = call i32 @test_true(ptr noundef @.str.1, i32 noundef 736, ptr noundef @.str.17, i32 noundef %19)
  %21 = icmp ne i32 %20, 0
  br i1 %21, label %22, label %57

22:                                               ; preds = %15
  %23 = load ptr, ptr @meth_always_retry, align 8, !tbaa !4
  %24 = call i32 @BIO_meth_set_puts(ptr noundef %23, ptr noundef @always_retry_puts)
  %25 = icmp ne i32 %24, 0
  %26 = zext i1 %25 to i32
  %27 = call i32 @test_true(ptr noundef @.str.1, i32 noundef 738, ptr noundef @.str.18, i32 noundef %26)
  %28 = icmp ne i32 %27, 0
  br i1 %28, label %29, label %57

29:                                               ; preds = %22
  %30 = load ptr, ptr @meth_always_retry, align 8, !tbaa !4
  %31 = call i32 @BIO_meth_set_gets(ptr noundef %30, ptr noundef @always_retry_gets)
  %32 = icmp ne i32 %31, 0
  %33 = zext i1 %32 to i32
  %34 = call i32 @test_true(ptr noundef @.str.1, i32 noundef 740, ptr noundef @.str.19, i32 noundef %33)
  %35 = icmp ne i32 %34, 0
  br i1 %35, label %36, label %57

36:                                               ; preds = %29
  %37 = load ptr, ptr @meth_always_retry, align 8, !tbaa !4
  %38 = call i32 @BIO_meth_set_ctrl(ptr noundef %37, ptr noundef @always_retry_ctrl)
  %39 = icmp ne i32 %38, 0
  %40 = zext i1 %39 to i32
  %41 = call i32 @test_true(ptr noundef @.str.1, i32 noundef 742, ptr noundef @.str.20, i32 noundef %40)
  %42 = icmp ne i32 %41, 0
  br i1 %42, label %43, label %57

43:                                               ; preds = %36
  %44 = load ptr, ptr @meth_always_retry, align 8, !tbaa !4
  %45 = call i32 @BIO_meth_set_create(ptr noundef %44, ptr noundef @always_retry_new)
  %46 = icmp ne i32 %45, 0
  %47 = zext i1 %46 to i32
  %48 = call i32 @test_true(ptr noundef @.str.1, i32 noundef 744, ptr noundef @.str.21, i32 noundef %47)
  %49 = icmp ne i32 %48, 0
  br i1 %49, label %50, label %57

50:                                               ; preds = %43
  %51 = load ptr, ptr @meth_always_retry, align 8, !tbaa !4
  %52 = call i32 @BIO_meth_set_destroy(ptr noundef %51, ptr noundef @always_retry_free)
  %53 = icmp ne i32 %52, 0
  %54 = zext i1 %53 to i32
  %55 = call i32 @test_true(ptr noundef @.str.1, i32 noundef 746, ptr noundef @.str.22, i32 noundef %54)
  %56 = icmp ne i32 %55, 0
  br i1 %56, label %58, label %57

57:                                               ; preds = %50, %43, %36, %29, %22, %15, %8, %4
  store ptr null, ptr %1, align 8
  br label %61

58:                                               ; preds = %50
  br label %59

59:                                               ; preds = %58, %0
  %60 = load ptr, ptr @meth_always_retry, align 8, !tbaa !4
  store ptr %60, ptr %1, align 8
  br label %61

61:                                               ; preds = %59, %57
  %62 = load ptr, ptr %1, align 8
  ret ptr %62
}