; Function Attrs: nounwind uwtable
define dso_local ptr @bio_s_always_retry() local_unnamed_addr #0 {
  %1 = load ptr, ptr @meth_always_retry, align 8, !tbaa !4
  %2 = icmp eq ptr %1, null
  br i1 %2, label %3, label %._crit_edge

3:                                                ; preds = %0
  %4 = tail call ptr @BIO_meth_new(i32 noundef 130, ptr noundef nonnull @.str.15) #14
  store ptr %4, ptr @meth_always_retry, align 8, !tbaa !4
  %5 = tail call i32 @test_ptr(ptr noundef nonnull @.str.1, i32 noundef 732, ptr noundef nonnull @.str.14, ptr noundef %4) #14
  %.not = icmp eq i32 %5, 0
  br i1 %.not, label %._crit_edge, label %6

6:                                                ; preds = %3
  %7 = load ptr, ptr @meth_always_retry, align 8, !tbaa !4
  %8 = tail call i32 @BIO_meth_set_write(ptr noundef %7, ptr noundef nonnull @always_retry_write) #14
  %9 = icmp ne i32 %8, 0
  %10 = zext i1 %9 to i32
  %11 = tail call i32 @test_true(ptr noundef nonnull @.str.1, i32 noundef 734, ptr noundef nonnull @.str.16, i32 noundef %10) #14
  %.not1 = icmp eq i32 %11, 0
  br i1 %.not1, label %._crit_edge, label %12

12:                                               ; preds = %6
  %13 = load ptr, ptr @meth_always_retry, align 8, !tbaa !4
  %14 = tail call i32 @BIO_meth_set_read(ptr noundef %13, ptr noundef nonnull @always_retry_read) #14
  %15 = icmp ne i32 %14, 0
  %16 = zext i1 %15 to i32
  %17 = tail call i32 @test_true(ptr noundef nonnull @.str.1, i32 noundef 736, ptr noundef nonnull @.str.17, i32 noundef %16) #14
  %.not2 = icmp eq i32 %17, 0
  br i1 %.not2, label %._crit_edge, label %18

18:                                               ; preds = %12
  %19 = load ptr, ptr @meth_always_retry, align 8, !tbaa !4
  %20 = tail call i32 @BIO_meth_set_puts(ptr noundef %19, ptr noundef nonnull @always_retry_puts) #14
  %21 = icmp ne i32 %20, 0
  %22 = zext i1 %21 to i32
  %23 = tail call i32 @test_true(ptr noundef nonnull @.str.1, i32 noundef 738, ptr noundef nonnull @.str.18, i32 noundef %22) #14
  %.not3 = icmp eq i32 %23, 0
  br i1 %.not3, label %._crit_edge, label %24

24:                                               ; preds = %18
  %25 = load ptr, ptr @meth_always_retry, align 8, !tbaa !4
  %26 = tail call i32 @BIO_meth_set_gets(ptr noundef %25, ptr noundef nonnull @always_retry_gets) #14
  %27 = icmp ne i32 %26, 0
  %28 = zext i1 %27 to i32
  %29 = tail call i32 @test_true(ptr noundef nonnull @.str.1, i32 noundef 740, ptr noundef nonnull @.str.19, i32 noundef %28) #14
  %.not4 = icmp eq i32 %29, 0
  br i1 %.not4, label %._crit_edge, label %30

30:                                               ; preds = %24
  %31 = load ptr, ptr @meth_always_retry, align 8, !tbaa !4
  %32 = tail call i32 @BIO_meth_set_ctrl(ptr noundef %31, ptr noundef nonnull @always_retry_ctrl) #14
  %33 = icmp ne i32 %32, 0
  %34 = zext i1 %33 to i32
  %35 = tail call i32 @test_true(ptr noundef nonnull @.str.1, i32 noundef 742, ptr noundef nonnull @.str.20, i32 noundef %34) #14
  %.not5 = icmp eq i32 %35, 0
  br i1 %.not5, label %._crit_edge, label %36

36:                                               ; preds = %30
  %37 = load ptr, ptr @meth_always_retry, align 8, !tbaa !4
  %38 = tail call i32 @BIO_meth_set_create(ptr noundef %37, ptr noundef nonnull @always_retry_new) #14
  %39 = icmp ne i32 %38, 0
  %40 = zext i1 %39 to i32
  %41 = tail call i32 @test_true(ptr noundef nonnull @.str.1, i32 noundef 744, ptr noundef nonnull @.str.21, i32 noundef %40) #14
  %.not6 = icmp eq i32 %41, 0
  br i1 %.not6, label %._crit_edge, label %42

42:                                               ; preds = %36
  %43 = load ptr, ptr @meth_always_retry, align 8, !tbaa !4
  %44 = tail call i32 @BIO_meth_set_destroy(ptr noundef %43, ptr noundef nonnull @always_retry_free) #14
  %45 = icmp ne i32 %44, 0
  %46 = zext i1 %45 to i32
  %47 = tail call i32 @test_true(ptr noundef nonnull @.str.1, i32 noundef 746, ptr noundef nonnull @.str.22, i32 noundef %46) #14
  %.not7 = icmp eq i32 %47, 0
  %.pre = load ptr, ptr @meth_always_retry, align 8
  %spec.select = select i1 %.not7, ptr null, ptr %.pre
  br label %._crit_edge

._crit_edge:                                      ; preds = %42, %0, %3, %6, %12, %18, %24, %30, %36
  %.0 = phi ptr [ null, %36 ], [ null, %30 ], [ null, %24 ], [ null, %18 ], [ null, %12 ], [ null, %6 ], [ null, %3 ], [ %1, %0 ], [ %spec.select, %42 ]
  ret ptr %.0
}